target datalayout = "e-m:e-p270:32:32-p271:32:32-p272:64:64-i64:64-i128:128-f80:128-n8:16:32:64-S128"
target triple = "x86_64-pc-linux-gnu"

%struct.AVFilterFormats = type { i32, ptr, i32, ptr }

; Function Attrs: nounwind uwtable
define internal i32 @merge_generic_internal(ptr noundef %0, ptr noundef %1, i32 noundef %2) #0 {
  %4 = alloca i32, align 4
  %5 = alloca ptr, align 8
  %6 = alloca ptr, align 8
  %7 = alloca i32, align 4
  %8 = alloca i32, align 4
  %9 = alloca i32, align 4
  %10 = alloca i32, align 4
  %11 = alloca i32, align 4
  %12 = alloca i32, align 4
  %13 = alloca ptr, align 8
  %14 = alloca i32, align 4
  store ptr %0, ptr %5, align 8, !tbaa !27
  store ptr %1, ptr %6, align 8, !tbaa !27
  store i32 %2, ptr %7, align 4, !tbaa !21
  %15 = load ptr, ptr %5, align 8, !tbaa !27
  %16 = load ptr, ptr %6, align 8, !tbaa !27
  %17 = icmp eq ptr %15, %16
  br i1 %17, label %18, label %19

18:                                               ; preds = %3
  store i32 1, ptr %4, align 4
  br label %158

19:                                               ; preds = %3
  br label %20

20:                                               ; preds = %19
  call void @llvm.lifetime.start.p0(i64 4, ptr %8) #7
  call void @llvm.lifetime.start.p0(i64 4, ptr %9) #7
  call void @llvm.lifetime.start.p0(i64 4, ptr %10) #7
  store i32 0, ptr %10, align 4, !tbaa !21
  call void @llvm.lifetime.start.p0(i64 4, ptr %11) #7
  store i32 0, ptr %11, align 4, !tbaa !21
  %21 = load i32, ptr %11, align 4, !tbaa !21
  %22 = icmp ne i32 %21, 0
  br i1 %22, label %88, label %23

23:                                               ; preds = %20
  store i32 0, ptr %8, align 4, !tbaa !21
  br label %24

24:                                               ; preds = %77, %23
  %25 = load i32, ptr %8, align 4, !tbaa !21
  %26 = load ptr, ptr %5, align 8, !tbaa !27
  %27 = getelementptr inbounds nuw %struct.AVFilterFormats, ptr %26, i32 0, i32 0
  %28 = load i32, ptr %27, align 8, !tbaa !28
  %29 = icmp ult i32 %25, %28
  br i1 %29, label %30, label %80

30:                                               ; preds = %24
  store i32 0, ptr %9, align 4, !tbaa !21
  br label %31

31:                                               ; preds = %73, %30
  %32 = load i32, ptr %9, align 4, !tbaa !21
  %33 = load ptr, ptr %6, align 8, !tbaa !27
  %34 = getelementptr inbounds nuw %struct.AVFilterFormats, ptr %33, i32 0, i32 0
  %35 = load i32, ptr %34, align 8, !tbaa !28
  %36 = icmp ult i32 %32, %35
  br i1 %36, label %37, label %76

37:                                               ; preds = %31
  %38 = load ptr, ptr %5, align 8, !tbaa !27
  %39 = getelementptr inbounds nuw %struct.AVFilterFormats, ptr %38, i32 0, i32 1
  %40 = load ptr, ptr %39, align 8, !tbaa !32
  %41 = load i32, ptr %8, align 4, !tbaa !21
  %42 = sext i32 %41 to i64
  %43 = getelementptr inbounds i32, ptr %40, i64 %42
  %44 = load i32, ptr %43, align 4, !tbaa !21
  %45 = load ptr, ptr %6, align 8, !tbaa !27
  %46 = getelementptr inbounds nuw %struct.AVFilterFormats, ptr %45, i32 0, i32 1
  %47 = load ptr, ptr %46, align 8, !tbaa !32
  %48 = load i32, ptr %9, align 4, !tbaa !21
  %49 = sext i32 %48 to i64
  %50 = getelementptr inbounds i32, ptr %47, i64 %49
  %51 = load i32, ptr %50, align 4, !tbaa !21
  %52 = icmp eq i32 %44, %51
  br i1 %52, label %53, label %72

53:                                               ; preds = %37
  %54 = load i32, ptr %7, align 4, !tbaa !21
  %55 = icmp ne i32 %54, 0
  br i1 %55, label %56, label %57

56:                                               ; preds = %53
  store i32 1, ptr %4, align 4
  store i32 1, ptr %12, align 4
  br label %154

57:                                               ; preds = %53
  %58 = load ptr, ptr %5, align 8, !tbaa !27
  %59 = getelementptr inbounds nuw %struct.AVFilterFormats, ptr %58, i32 0, i32 1
  %60 = load ptr, ptr %59, align 8, !tbaa !32
  %61 = load i32, ptr %8, align 4, !tbaa !21
  %62 = sext i32 %61 to i64
  %63 = getelementptr inbounds i32, ptr %60, i64 %62
  %64 = load i32, ptr %63, align 4, !tbaa !21
  %65 = load ptr, ptr %5, align 8, !tbaa !27
  %66 = getelementptr inbounds nuw %struct.AVFilterFormats, ptr %65, i32 0, i32 1
  %67 = load ptr, ptr %66, align 8, !tbaa !32
  %68 = load i32, ptr %10, align 4, !tbaa !21
  %69 = add nsw i32 %68, 1
  store i32 %69, ptr %10, align 4, !tbaa !21
  %70 = sext i32 %68 to i64
  %71 = getelementptr inbounds i32, ptr %67, i64 %70
  store i32 %64, ptr %71, align 4, !tbaa !21
  br label %76

72:                                               ; preds = %37
  br label %73

73:                                               ; preds = %72
  %74 = load i32, ptr %9, align 4, !tbaa !21
  %75 = add nsw i32 %74, 1
  store i32 %75, ptr %9, align 4, !tbaa !21
  br label %31, !llvm.loop !148

76:                                               ; preds = %57, %31
  br label %77

77:                                               ; preds = %76
  %78 = load i32, ptr %8, align 4, !tbaa !21
  %79 = add nsw i32 %78, 1
  store i32 %79, ptr %8, align 4, !tbaa !21
  br label %24, !llvm.loop !149

80:                                               ; preds = %24
  %81 = load i32, ptr %10, align 4, !tbaa !21
  %82 = icmp ne i32 %81, 0
  br i1 %82, label %84, label %83

83:                                               ; preds = %80
  store i32 0, ptr %4, align 4
  store i32 1, ptr %12, align 4
  br label %154

84:                                               ; preds = %80
  %85 = load i32, ptr %10, align 4, !tbaa !21
  %86 = load ptr, ptr %5, align 8, !tbaa !27
  %87 = getelementptr inbounds nuw %struct.AVFilterFormats, ptr %86, i32 0, i32 0
  store i32 %85, ptr %87, align 8, !tbaa !28
  br label %88

88:                                               ; preds = %84, %20
  br label %89

89:                                               ; preds = %88
  call void @llvm.lifetime.start.p0(i64 8, ptr %13) #7
  call void @llvm.lifetime.start.p0(i64 4, ptr %14) #7
  %90 = load ptr, ptr %5, align 8, !tbaa !27
  %91 = getelementptr inbounds nuw %struct.AVFilterFormats, ptr %90, i32 0, i32 3
  %92 = load ptr, ptr %91, align 8, !tbaa !50
  %93 = load ptr, ptr %5, align 8, !tbaa !27
  %94 = getelementptr inbounds nuw %struct.AVFilterFormats, ptr %93, i32 0, i32 2
  %95 = load i32, ptr %94, align 8, !tbaa !49
  %96 = load ptr, ptr %6, align 8, !tbaa !27
  %97 = getelementptr inbounds nuw %struct.AVFilterFormats, ptr %96, i32 0, i32 2
  %98 = load i32, ptr %97, align 8, !tbaa !49
  %99 = add i32 %95, %98
  %100 = zext i32 %99 to i64
  %101 = call ptr @av_realloc_array(ptr noundef %92, i64 noundef %100, i64 noundef 8)
  store ptr %101, ptr %13, align 8, !tbaa !146
  %102 = icmp ne ptr %101, null
  br i1 %102, label %104, label %103

103:                                              ; preds = %89
  store i32 -12, ptr %4, align 4
  store i32 1, ptr %12, align 4
  br label %149

104:                                              ; preds = %89
  %105 = load ptr, ptr %13, align 8, !tbaa !146
  %106 = load ptr, ptr %5, align 8, !tbaa !27
  %107 = getelementptr inbounds nuw %struct.AVFilterFormats, ptr %106, i32 0, i32 3
  store ptr %105, ptr %107, align 8, !tbaa !50
  store i32 0, ptr %14, align 4, !tbaa !21
  br label %108

108:                                              ; preds = %141, %104
  %109 = load i32, ptr %14, align 4, !tbaa !21
  %110 = load ptr, ptr %6, align 8, !tbaa !27
  %111 = getelementptr inbounds nuw %struct.AVFilterFormats, ptr %110, i32 0, i32 2
  %112 = load i32, ptr %111, align 8, !tbaa !49
  %113 = icmp ult i32 %109, %112
  br i1 %113, label %114, label %144

114:                                              ; preds = %108
  %115 = load ptr, ptr %6, align 8, !tbaa !27
  %116 = getelementptr inbounds nuw %struct.AVFilterFormats, ptr %115, i32 0, i32 3
  %117 = load ptr, ptr %116, align 8, !tbaa !50
  %118 = load i32, ptr %14, align 4, !tbaa !21
  %119 = sext i32 %118 to i64
  %120 = getelementptr inbounds ptr, ptr %117, i64 %119
  %121 = load ptr, ptr %120, align 8, !tbaa !45
  %122 = load ptr, ptr %5, align 8, !tbaa !27
  %123 = getelementptr inbounds nuw %struct.AVFilterFormats, ptr %122, i32 0, i32 3
  %124 = load ptr, ptr %123, align 8, !tbaa !50
  %125 = load ptr, ptr %5, align 8, !tbaa !27
  %126 = getelementptr inbounds nuw %struct.AVFilterFormats, ptr %125, i32 0, i32 2
  %127 = load i32, ptr %126, align 8, !tbaa !49
  %128 = zext i32 %127 to i64
  %129 = getelementptr inbounds nuw ptr, ptr %124, i64 %128
  store ptr %121, ptr %129, align 8, !tbaa !45
  %130 = load ptr, ptr %5, align 8, !tbaa !27
  %131 = load ptr, ptr %5, align 8, !tbaa !27
  %132 = getelementptr inbounds nuw %struct.AVFilterFormats, ptr %131, i32 0, i32 3
  %133 = load ptr, ptr %132, align 8, !tbaa !50
  %134 = load ptr, ptr %5, align 8, !tbaa !27
  %135 = getelementptr inbounds nuw %struct.AVFilterFormats, ptr %134, i32 0, i32 2
  %136 = load i32, ptr %135, align 8, !tbaa !49
  %137 = add i32 %136, 1
  store i32 %137, ptr %135, align 8, !tbaa !49
  %138 = zext i32 %136 to i64
  %139 = getelementptr inbounds nuw ptr, ptr %133, i64 %138
  %140 = load ptr, ptr %139, align 8, !tbaa !45
  store ptr %130, ptr %140, align 8, !tbaa !27
  br label %141

141:                                              ; preds = %114
  %142 = load i32, ptr %14, align 4, !tbaa !21
  %143 = add nsw i32 %142, 1
  store i32 %143, ptr %14, align 4, !tbaa !21
  br label %108, !llvm.loop !150

144:                                              ; preds = %108
  %145 = load ptr, ptr %6, align 8, !tbaa !27
  %146 = getelementptr inbounds nuw %struct.AVFilterFormats, ptr %145, i32 0, i32 3
  call void @av_freep(ptr noundef %146)
  %147 = load ptr, ptr %6, align 8, !tbaa !27
  %148 = getelementptr inbounds nuw %struct.AVFilterFormats, ptr %147, i32 0, i32 1
  call void @av_freep(ptr noundef %148)
  call void @av_freep(ptr noundef %6)
  store i32 0, ptr %12, align 4
  br label %149

149:                                              ; preds = %144, %103
  call void @llvm.lifetime.end.p0(i64 4, ptr %14) #7
  call void @llvm.lifetime.end.p0(i64 8, ptr %13) #7
  %150 = load i32, ptr %12, align 4
  switch i32 %150, label %154 [
    i32 0, label %151
  ]

151:                                              ; preds = %149
  br label %152

152:                                              ; preds = %151
  br label %153

153:                                              ; preds = %152
  store i32 0, ptr %12, align 4
  br label %154

154:                                              ; preds = %153, %149, %83, %56
  call void @llvm.lifetime.end.p0(i64 4, ptr %11) #7
  call void @llvm.lifetime.end.p0(i64 4, ptr %10) #7
  call void @llvm.lifetime.end.p0(i64 4, ptr %9) #7
  call void @llvm.lifetime.end.p0(i64 4, ptr %8) #7
  %155 = load i32, ptr %12, align 4
  switch i32 %155, label %160 [
    i32 0, label %156
    i32 1, label %158
  ]

156:                                              ; preds = %154
  br label %157

157:                                              ; preds = %156
  store i32 1, ptr %4, align 4
  br label %158

158:                                              ; preds = %157, %154, %18
  %159 = load i32, ptr %4, align 4
  ret i32 %159

160:                                              ; preds = %154
  unreachable
}