; Function Attrs: nounwind uwtable
define internal fastcc range(i32 -12, 2) i32 @merge_generic_internal(ptr noundef %0, ptr noundef %1, i32 noundef range(i32 0, 2) %2) unnamed_addr #3 {
  %4 = alloca ptr, align 8
  store ptr %1, ptr %4, align 8, !tbaa !23
  %5 = icmp eq ptr %0, %1
  br i1 %5, label %.thread, label %.preheader47

.preheader47:                                     ; preds = %3
  %6 = load i32, ptr %0, align 8, !tbaa !24
  %.not60 = icmp eq i32 %6, 0
  br i1 %.not60, label %.thread, label %.preheader.lr.ph

.preheader.lr.ph:                                 ; preds = %.preheader47
  %7 = getelementptr inbounds nuw i8, ptr %0, i64 8
  %8 = getelementptr inbounds nuw i8, ptr %1, i64 8
  %.not43 = icmp eq i32 %2, 0
  %9 = load i32, ptr %1, align 8, !tbaa !24
  %.not61 = icmp eq i32 %9, 0
  br i1 %.not61, label %.thread, label %.preheader

.preheaderthread-pre-split:                       ; preds = %.loopexit
  %.pr = load i32, ptr %1, align 8, !tbaa !24
  br label %.preheader

.preheader:                                       ; preds = %.preheader.lr.ph, %.preheaderthread-pre-split
  %10 = phi i32 [ %.pr, %.preheaderthread-pre-split ], [ %9, %.preheader.lr.ph ]
  %11 = phi i32 [ %26, %.preheaderthread-pre-split ], [ %6, %.preheader.lr.ph ]
  %indvars.iv67 = phi i64 [ %indvars.iv.next68, %.preheaderthread-pre-split ], [ 0, %.preheader.lr.ph ]
  %.03652 = phi i32 [ %.137, %.preheaderthread-pre-split ], [ 0, %.preheader.lr.ph ]
  %.not62 = icmp eq i32 %10, 0
  br i1 %.not62, label %.loopexit, label %.lr.ph

.lr.ph:                                           ; preds = %.preheader
  %12 = load ptr, ptr %7, align 8, !tbaa !29
  %13 = getelementptr inbounds nuw i32, ptr %12, i64 %indvars.iv67
  %14 = load i32, ptr %13, align 4, !tbaa !19
  %15 = load ptr, ptr %8, align 8, !tbaa !29
  %wide.trip.count = zext i32 %10 to i64
  br label %17

16:                                               ; preds = %17
  %indvars.iv.next = add nuw nsw i64 %indvars.iv, 1
  %exitcond.not = icmp eq i64 %indvars.iv.next, %wide.trip.count
  br i1 %exitcond.not, label %.loopexit, label %17, !llvm.loop !135

17:                                               ; preds = %.lr.ph, %16
  %indvars.iv = phi i64 [ 0, %.lr.ph ], [ %indvars.iv.next, %16 ]
  %18 = getelementptr inbounds nuw i32, ptr %15, i64 %indvars.iv
  %19 = load i32, ptr %18, align 4, !tbaa !19
  %20 = icmp eq i32 %14, %19
  br i1 %20, label %21, label %16

21:                                               ; preds = %17
  br i1 %.not43, label %22, label %.thread

22:                                               ; preds = %21
  %23 = add nsw i32 %.03652, 1
  %24 = sext i32 %.03652 to i64
  %25 = getelementptr inbounds i32, ptr %12, i64 %24
  store i32 %14, ptr %25, align 4, !tbaa !19
  %.pre = load i32, ptr %0, align 8, !tbaa !24
  br label %.loopexit

.loopexit:                                        ; preds = %16, %.preheader, %22
  %26 = phi i32 [ %.pre, %22 ], [ %11, %.preheader ], [ %11, %16 ]
  %.137 = phi i32 [ %23, %22 ], [ %.03652, %.preheader ], [ %.03652, %16 ]
  %indvars.iv.next68 = add nuw nsw i64 %indvars.iv67, 1
  %27 = zext i32 %26 to i64
  %28 = icmp samesign ult i64 %indvars.iv.next68, %27
  br i1 %28, label %.preheaderthread-pre-split, label %._crit_edge, !llvm.loop !136

._crit_edge:                                      ; preds = %.loopexit
  %.not = icmp eq i32 %.137, 0
  br i1 %.not, label %.thread, label %29

29:                                               ; preds = %._crit_edge
  store i32 %.137, ptr %0, align 8, !tbaa !24
  %30 = getelementptr inbounds nuw i8, ptr %0, i64 24
  %31 = load ptr, ptr %30, align 8, !tbaa !42
  %32 = getelementptr inbounds nuw i8, ptr %0, i64 16
  %33 = load i32, ptr %32, align 8, !tbaa !41
  %34 = getelementptr inbounds nuw i8, ptr %1, i64 16
  %35 = load i32, ptr %34, align 8, !tbaa !41
  %36 = add i32 %35, %33
  %37 = zext i32 %36 to i64
  %38 = tail call ptr @av_realloc_array(ptr noundef %31, i64 noundef %37, i64 noundef 8) #10
  %.not42 = icmp eq ptr %38, null
  br i1 %.not42, label %.thread, label %39

39:                                               ; preds = %29
  store ptr %38, ptr %30, align 8, !tbaa !42
  %40 = load i32, ptr %34, align 8, !tbaa !41
  %.not63 = icmp eq i32 %40, 0
  br i1 %.not63, label %._crit_edge58, label %.lr.ph57

.lr.ph57:                                         ; preds = %39
  %.promoted = load i32, ptr %32, align 8, !tbaa !41
  %.phi.trans.insert = getelementptr inbounds nuw i8, ptr %1, i64 24
  %.pre73 = load ptr, ptr %.phi.trans.insert, align 8, !tbaa !42
  br label %41

41:                                               ; preds = %.lr.ph57, %41
  %indvars.iv70 = phi i64 [ 0, %.lr.ph57 ], [ %indvars.iv.next71, %41 ]
  %42 = phi i32 [ %.promoted, %.lr.ph57 ], [ %47, %41 ]
  %43 = getelementptr inbounds nuw ptr, ptr %.pre73, i64 %indvars.iv70
  %44 = load ptr, ptr %43, align 8, !tbaa !43
  %45 = zext i32 %42 to i64
  %46 = getelementptr inbounds nuw ptr, ptr %38, i64 %45
  store ptr %44, ptr %46, align 8, !tbaa !43
  %47 = add i32 %42, 1
  store i32 %47, ptr %32, align 8, !tbaa !41
  store ptr %0, ptr %44, align 8, !tbaa !23
  %indvars.iv.next71 = add nuw nsw i64 %indvars.iv70, 1
  %48 = load i32, ptr %34, align 8, !tbaa !41
  %49 = zext i32 %48 to i64
  %50 = icmp samesign ult i64 %indvars.iv.next71, %49
  br i1 %50, label %41, label %._crit_edge58, !llvm.loop !137

._crit_edge58:                                    ; preds = %41, %39
  %51 = getelementptr inbounds nuw i8, ptr %1, i64 24
  tail call void @av_freep(ptr noundef nonnull %51) #10
  %52 = getelementptr inbounds nuw i8, ptr %1, i64 8
  tail call void @av_freep(ptr noundef nonnull %52) #10
  call void @av_freep(ptr noundef nonnull %4) #10
  br label %.thread

.thread:                                          ; preds = %21, %.preheader.lr.ph, %.preheader47, %29, %._crit_edge, %._crit_edge58, %3
  %.032 = phi i32 [ 1, %3 ], [ 1, %._crit_edge58 ], [ -12, %29 ], [ 0, %._crit_edge ], [ 0, %.preheader47 ], [ 0, %.preheader.lr.ph ], [ 1, %21 ]
  ret i32 %.032
}